	.file	"test1.c"
	.text
	.globl	main
	.type	main, @function
main:
.LFB0:
	.cfi_startproc
	pushq	%rbp
	.cfi_def_cfa_offset 16
	.cfi_offset 6, -16
	movq	%rsp, %rbp
	.cfi_def_cfa_register 6
	subq	$16, %rsp
	movl	$3, -4(%rbp)
	movl	$4, -8(%rbp)
	movl	-8(%rbp), %edx
	movl	-4(%rbp), %eax
	movl	%edx, %esi
	movl	%eax, %edi
	call	printName
	nop
	leave
	.cfi_def_cfa 7, 8
	ret
	.cfi_endproc
.LFE0:
	.size	main, .-main
	.section	.rodata
.LC0:
	.string	"Javatpoint"
.LC1:
	.string	"The sum is "
.LC2:
	.string	"%s"
.LC3:
	.string	"%d\n"
	.text
	.globl	printName
	.type	printName, @function
printName:
.LFB1:
	.cfi_startproc
	pushq	%rbp
	.cfi_def_cfa_offset 16
	.cfi_offset 6, -16
	movq	%rsp, %rbp
	.cfi_def_cfa_register 6
	subq	$32, %rsp
	movl	%edi, -20(%rbp)
	movl	%esi, -24(%rbp)
	movl	$.LC0, %edi
	movl	$0, %eax
	call	printf
	movl	-20(%rbp), %edx
	movl	-24(%rbp), %eax
	addl	%edx, %eax
	movl	%eax, -4(%rbp)
	movq	$.LC1, -16(%rbp)
	movq	-16(%rbp), %rax
	movq	%rax, %rsi
	movl	$.LC2, %edi
	movl	$0, %eax
	call	printf
	movl	-4(%rbp), %eax
	movl	%eax, %esi
	movl	$.LC3, %edi
	movl	$0, %eax
	call	printf
	nop
	leave
	.cfi_def_cfa 7, 8
	ret
	.cfi_endproc
.LFE1:
	.size	printName, .-printName
	.ident	"GCC: (GNU) 12.2.1 20220819 (Red Hat 12.2.1-2)"
	.section	.note.GNU-stack,"",@progbits
